; Function Attrs: mustprogress nounwind uwtable
define internal noundef i64 @"_ZN5folly6detail8function13DispatchSmall4execIZNS_25EventBaseThreadTimekeeper5afterENSt6chrono8durationIlSt5ratioILl1ELl1000000EEEEE3$_0EEmNS1_2OpEPNS1_4DataESD_"(i32 noundef %0, ptr noundef captures(none) %1, ptr noundef writeonly captures(none) %2) #0 align 2 personality ptr @__gxx_personality_v0 {
  switch i32 %0, label %"_ZZN5folly25EventBaseThreadTimekeeper5afterENSt6chrono8durationIlSt5ratioILl1ELl1000000EEEEEN3$_0D2Ev.exit" [
    i32 0, label %4
    i32 1, label %15
  ]

4:                                                ; preds = %3
  %5 = load ptr, ptr %1, align 8, !tbaa !20
  store ptr %5, ptr %2, align 8, !tbaa !20
  %6 = getelementptr inbounds nuw i8, ptr %2, i64 8
  %7 = getelementptr inbounds nuw i8, ptr %1, i64 8
  %8 = load ptr, ptr %7, align 8, !tbaa !14
  store ptr %8, ptr %6, align 8, !tbaa !14
  %9 = getelementptr inbounds nuw i8, ptr %2, i64 16
  store ptr null, ptr %9, align 8, !tbaa !19
  %10 = getelementptr inbounds nuw i8, ptr %1, i64 16
  %11 = load ptr, ptr %10, align 8, !tbaa !19
  store ptr null, ptr %10, align 8, !tbaa !19
  store ptr %11, ptr %9, align 8, !tbaa !19
  store ptr null, ptr %7, align 8, !tbaa !14
  %12 = getelementptr inbounds nuw i8, ptr %2, i64 24
  %13 = getelementptr inbounds nuw i8, ptr %1, i64 24
  %14 = load i64, ptr %13, align 8, !tbaa !26
  store i64 %14, ptr %12, align 8, !tbaa !26
  br label %15

15:                                               ; preds = %4, %3
  %16 = getelementptr i8, ptr %1, i64 16
  %.val = load ptr, ptr %16, align 8, !tbaa !19
  %.not.i.i.i = icmp eq ptr %.val, null
  br i1 %.not.i.i.i, label %"_ZZN5folly25EventBaseThreadTimekeeper5afterENSt6chrono8durationIlSt5ratioILl1ELl1000000EEEEEN3$_0D2Ev.exit", label %17

17:                                               ; preds = %15
  %18 = getelementptr inbounds nuw i8, ptr %.val, i64 8
  %19 = load atomic i64, ptr %18 acquire, align 8
  %20 = icmp eq i64 %19, 4294967297
  %21 = trunc i64 %19 to i32
  br i1 %20, label %22, label %30

22:                                               ; preds = %17
  store i32 0, ptr %18, align 8, !tbaa !33
  %23 = getelementptr inbounds nuw i8, ptr %.val, i64 12
  store i32 0, ptr %23, align 4, !tbaa !36
  %24 = load ptr, ptr %.val, align 8, !tbaa !37
  %25 = getelementptr inbounds nuw i8, ptr %24, i64 16
  %26 = load ptr, ptr %25, align 8
  tail call void %26(ptr noundef nonnull align 8 dereferenceable(16) %.val) #15
  %27 = load ptr, ptr %.val, align 8, !tbaa !37
  %28 = getelementptr inbounds nuw i8, ptr %27, i64 24
  %29 = load ptr, ptr %28, align 8
  tail call void %29(ptr noundef nonnull align 8 dereferenceable(16) %.val) #15
  br label %"_ZZN5folly25EventBaseThreadTimekeeper5afterENSt6chrono8durationIlSt5ratioILl1ELl1000000EEEEEN3$_0D2Ev.exit"

30:                                               ; preds = %17
  %31 = load i8, ptr @__libc_single_threaded, align 1, !tbaa !39
  %.not.i.i.i.i = icmp eq i8 %31, 0
  br i1 %.not.i.i.i.i, label %34, label %32

32:                                               ; preds = %30
  %33 = add nsw i32 %21, -1
  store i32 %33, ptr %18, align 4, !tbaa !40
  br label %_ZN9__gnu_cxx27__exchange_and_add_dispatchEPii.exit.i.i.i.i

34:                                               ; preds = %30
  %35 = atomicrmw volatile add ptr %18, i32 -1 acq_rel, align 4
  br label %_ZN9__gnu_cxx27__exchange_and_add_dispatchEPii.exit.i.i.i.i

_ZN9__gnu_cxx27__exchange_and_add_dispatchEPii.exit.i.i.i.i: ; preds = %34, %32
  %.0.i.i.i.i.i = phi i32 [ %21, %32 ], [ %35, %34 ]
  %36 = icmp eq i32 %.0.i.i.i.i.i, 1
  br i1 %36, label %37, label %"_ZZN5folly25EventBaseThreadTimekeeper5afterENSt6chrono8durationIlSt5ratioILl1ELl1000000EEEEEN3$_0D2Ev.exit", !prof !41

37:                                               ; preds = %_ZN9__gnu_cxx27__exchange_and_add_dispatchEPii.exit.i.i.i.i
  tail call void @_ZNSt16_Sp_counted_baseILN9__gnu_cxx12_Lock_policyE2EE24_M_release_last_use_coldEv(ptr noundef nonnull align 8 dereferenceable(16) %.val) #15
  br label %"_ZZN5folly25EventBaseThreadTimekeeper5afterENSt6chrono8durationIlSt5ratioILl1ELl1000000EEEEEN3$_0D2Ev.exit"

"_ZZN5folly25EventBaseThreadTimekeeper5afterENSt6chrono8durationIlSt5ratioILl1ELl1000000EEEEEN3$_0D2Ev.exit": ; preds = %37, %_ZN9__gnu_cxx27__exchange_and_add_dispatchEPii.exit.i.i.i.i, %22, %15, %3
  ret i64 0
}